; Auto generated by ClangVMP v1.1.2

%"struct.CoroutineDef::task" = type { %"struct.std::__1::coroutine_handle" }
%"struct.std::__1::coroutine_handle" = type { ptr }
%"struct.CoroutineDef::task::promise_type" = type { ptr }
%"struct.std::__1::suspend_never" = type { i8 }
%_ZN12CoroutineRef8coreturnEv.Frame = type { ptr, ptr, %"struct.CoroutineDef::task::promise_type", i1, %"struct.std::__1::suspend_never", %"struct.std::__1::suspend_never" }
%"struct.std::__1::coroutine_handle.0" = type { ptr }

; Function Attrs: mustprogress noinline nounwind optnone ssp
define i64 @_ZN12CoroutineRef8coreturnEv() #0 {
  %1 = alloca %"struct.CoroutineDef::task", align 8
  %2 = alloca %"struct.CoroutineDef::task::promise_type", align 8
  %3 = alloca %"struct.std::__1::suspend_never", align 1
  %4 = alloca %"struct.std::__1::suspend_never", align 1
  %5 = alloca %"struct.std::__1::suspend_never", align 1
  %6 = alloca %"struct.std::__1::suspend_never", align 1
  br i1 true, label %9, label %7

7:                                                ; preds = %0
  %8 = phi ptr [ null, %0 ]
  br label %13

9:                                                ; preds = %0
  %10 = call noalias noundef nonnull ptr @_Znwm(i64 noundef 32) #6
  br label %11

11:                                               ; preds = %9
  %12 = phi ptr [ %10, %9 ]
  br label %13

13:                                               ; preds = %7, %11
  %14 = phi ptr [ %8, %7 ], [ %12, %11 ]
  %15 = getelementptr inbounds %_ZN12CoroutineRef8coreturnEv.Frame, ptr %14, i32 0, i32 0
  store ptr @_ZN12CoroutineRef8coreturnEv.resume, ptr %15, align 8
  %16 = select i1 true, ptr @_ZN12CoroutineRef8coreturnEv.destroy, ptr @_ZN12CoroutineRef8coreturnEv.cleanup
  %17 = getelementptr inbounds %_ZN12CoroutineRef8coreturnEv.Frame, ptr %14, i32 0, i32 1
  store ptr %16, ptr %17, align 8
  br label %18

18:                                               ; preds = %13
  %19 = getelementptr inbounds %_ZN12CoroutineRef8coreturnEv.Frame, ptr %14, i32 0, i32 4
  %20 = getelementptr inbounds %_ZN12CoroutineRef8coreturnEv.Frame, ptr %14, i32 0, i32 5
  %21 = getelementptr inbounds %_ZN12CoroutineRef8coreturnEv.Frame, ptr %14, i32 0, i32 2
  br label %22

22:                                               ; preds = %18
  %23 = call noundef ptr @_ZN12CoroutineDef4task12promise_typeC1Ev(ptr noundef nonnull align 8 dereferenceable(8) %21)
  %24 = call i64 @_ZN12CoroutineDef4task12promise_type17get_return_objectEv(ptr noundef nonnull align 8 dereferenceable(8) %21)
  %25 = getelementptr inbounds %"struct.CoroutineDef::task", ptr %1, i32 0, i32 0
  %26 = getelementptr inbounds %"struct.std::__1::coroutine_handle", ptr %25, i32 0, i32 0
  %27 = inttoptr i64 %24 to ptr
  store ptr %27, ptr %26, align 8
  call void @_ZN12CoroutineDef4task12promise_type15initial_suspendEv(ptr noundef nonnull align 8 dereferenceable(8) %21)
  %28 = call noundef zeroext i1 @_ZNKSt3__113suspend_never11await_readyB8un170006Ev(ptr noundef nonnull align 1 dereferenceable(1) %19) #7
  br i1 %28, label %38, label %29

29:                                               ; preds = %22
  %30 = getelementptr inbounds %_ZN12CoroutineRef8coreturnEv.Frame, ptr %14, i32 0, i32 3
  store i1 false, ptr %30, align 1
  br label %31

31:                                               ; preds = %29
  call void @__await_suspend_wrapper__ZN12CoroutineRef8coreturnEv_init(ptr %19, ptr %14) #7
  br label %32

32:                                               ; preds = %31
  br label %33

33:                                               ; preds = %32
  br label %34

34:                                               ; preds = %33
  switch i8 -1, label %77 [
    i8 0, label %38
    i8 1, label %35
  ]

35:                                               ; preds = %34
  br label %36

36:                                               ; preds = %35
  %37 = phi i32 [ 2, %35 ]
  br label %41

38:                                               ; preds = %34, %22
  call void @_ZNKSt3__113suspend_never12await_resumeB8un170006Ev(ptr noundef nonnull align 1 dereferenceable(1) %19) #7
  br label %39

39:                                               ; preds = %38
  %40 = phi i32 [ 0, %38 ]
  br label %41

41:                                               ; preds = %39, %36
  %42 = phi i32 [ %40, %39 ], [ %37, %36 ]
  %43 = icmp eq i32 %42, 0
  br i1 %43, label %46, label %44

44:                                               ; preds = %41
  %45 = phi i32 [ %42, %41 ]
  br label %70

46:                                               ; preds = %41
  %47 = call i32 (ptr, ...) @printf(ptr noundef @.str, ptr noundef @.str.1, i32 noundef 8, ptr noundef @.str.1)
  call void @_ZN12CoroutineDef4task12promise_type11return_voidEv(ptr noundef nonnull align 8 dereferenceable(8) %21)
  br label %48

48:                                               ; preds = %46
  call void @_ZN12CoroutineDef4task12promise_type13final_suspendEv(ptr noundef nonnull align 8 dereferenceable(8) %21) #7
  %49 = call noundef zeroext i1 @_ZNKSt3__113suspend_never11await_readyB8un170006Ev(ptr noundef nonnull align 1 dereferenceable(1) %20) #7
  br i1 %49, label %59, label %50

50:                                               ; preds = %48
  %51 = getelementptr inbounds %_ZN12CoroutineRef8coreturnEv.Frame, ptr %14, i32 0, i32 0
  store ptr null, ptr %51, align 8
  br label %52

52:                                               ; preds = %50
  call void @__await_suspend_wrapper__ZN12CoroutineRef8coreturnEv_final(ptr %20, ptr %14) #7
  br label %53

53:                                               ; preds = %52
  br label %54

54:                                               ; preds = %53
  br label %55

55:                                               ; preds = %54
  switch i8 -1, label %77 [
    i8 0, label %59
    i8 1, label %56
  ]

56:                                               ; preds = %55
  br label %57

57:                                               ; preds = %56
  %58 = phi i32 [ 2, %56 ]
  br label %62

59:                                               ; preds = %55, %48
  call void @_ZNKSt3__113suspend_never12await_resumeB8un170006Ev(ptr noundef nonnull align 1 dereferenceable(1) %20) #7
  br label %60

60:                                               ; preds = %59
  %61 = phi i32 [ 0, %59 ]
  br label %62

62:                                               ; preds = %60, %57
  %63 = phi i32 [ %61, %60 ], [ %58, %57 ]
  %64 = icmp eq i32 %63, 0
  br i1 %64, label %67, label %65

65:                                               ; preds = %62
  %66 = phi i32 [ %63, %62 ]
  br label %70

67:                                               ; preds = %62
  br label %68

68:                                               ; preds = %67
  %69 = phi i32 [ 0, %67 ]
  br label %70

70:                                               ; preds = %44, %65, %68
  %71 = phi i32 [ %45, %44 ], [ %66, %65 ], [ %69, %68 ]
  %72 = call noundef ptr @_ZN12CoroutineDef4task12promise_typeD1Ev(ptr noundef nonnull align 8 dereferenceable(8) %21) #7
  %73 = icmp ne ptr %14, null
  br i1 %73, label %74, label %75

74:                                               ; preds = %70
  call void @_ZdlPv(ptr noundef %14) #7
  br label %75

75:                                               ; preds = %70, %74
  switch i32 %71, label %84 [
    i32 0, label %76
    i32 2, label %77
  ]

76:                                               ; preds = %75
  br label %77

77:                                               ; preds = %76, %75, %55, %34
  br label %78

78:                                               ; preds = %77
  br label %79

79:                                               ; preds = %78
  %80 = getelementptr inbounds %"struct.CoroutineDef::task", ptr %1, i32 0, i32 0
  %81 = getelementptr inbounds %"struct.std::__1::coroutine_handle", ptr %80, i32 0, i32 0
  %82 = load ptr, ptr %81, align 8
  %83 = ptrtoint ptr %82 to i64
  ret i64 %83

84:                                               ; preds = %75
  unreachable
}

; Function Attrs: alwaysinline mustprogress
define private void @__await_suspend_wrapper__ZN12CoroutineRef8coreturnEv_init(ptr noundef nonnull %0, ptr noundef %1) #2 {
  %3 = alloca ptr, align 8
  %4 = alloca ptr, align 8
  %5 = alloca %"struct.std::__1::coroutine_handle.0", align 8
  %6 = alloca %"struct.std::__1::coroutine_handle", align 8
  store ptr %0, ptr %3, align 8
  store ptr %1, ptr %4, align 8
  %7 = load ptr, ptr %3, align 8
  %8 = load ptr, ptr %4, align 8
  %9 = call i64 @_ZNSt3__116coroutine_handleIN12CoroutineDef4task12promise_typeEE12from_addressB8un170006EPv(ptr noundef %8) #6
  %10 = getelementptr inbounds %"struct.std::__1::coroutine_handle", ptr %6, i32 0, i32 0
  %11 = inttoptr i64 %9 to ptr
  store ptr %11, ptr %10, align 8
  %12 = call i64 @_ZNKSt3__116coroutine_handleIN12CoroutineDef4task12promise_typeEEcvNS0_IvEEB8un170006Ev(ptr noundef nonnull align 8 dereferenceable(8) %6) #6
  %13 = getelementptr inbounds %"struct.std::__1::coroutine_handle.0", ptr %5, i32 0, i32 0
  %14 = inttoptr i64 %12 to ptr
  store ptr %14, ptr %13, align 8
  %15 = getelementptr inbounds %"struct.std::__1::coroutine_handle.0", ptr %5, i32 0, i32 0
  %16 = load ptr, ptr %15, align 8
  %17 = ptrtoint ptr %16 to i64
  call void @_ZNKSt3__113suspend_never13await_suspendB8un170006ENS_16coroutine_handleIvEE(ptr noundef nonnull align 1 dereferenceable(1) %7, i64 %17) #6
  ret void
}

; Function Attrs: alwaysinline mustprogress
define private void @__await_suspend_wrapper__ZN12CoroutineRef8coreturnEv_final(ptr noundef nonnull %0, ptr noundef %1) #2 {
  %3 = alloca ptr, align 8
  %4 = alloca ptr, align 8
  %5 = alloca %"struct.std::__1::coroutine_handle.0", align 8
  %6 = alloca %"struct.std::__1::coroutine_handle", align 8
  store ptr %0, ptr %3, align 8
  store ptr %1, ptr %4, align 8
  %7 = load ptr, ptr %3, align 8
  %8 = load ptr, ptr %4, align 8
  %9 = call i64 @_ZNSt3__116coroutine_handleIN12CoroutineDef4task12promise_typeEE12from_addressB8un170006EPv(ptr noundef %8) #6
  %10 = getelementptr inbounds %"struct.std::__1::coroutine_handle", ptr %6, i32 0, i32 0
  %11 = inttoptr i64 %9 to ptr
  store ptr %11, ptr %10, align 8
  %12 = call i64 @_ZNKSt3__116coroutine_handleIN12CoroutineDef4task12promise_typeEEcvNS0_IvEEB8un170006Ev(ptr noundef nonnull align 8 dereferenceable(8) %6) #6
  %13 = getelementptr inbounds %"struct.std::__1::coroutine_handle.0", ptr %5, i32 0, i32 0
  %14 = inttoptr i64 %12 to ptr
  store ptr %14, ptr %13, align 8
  %15 = getelementptr inbounds %"struct.std::__1::coroutine_handle.0", ptr %5, i32 0, i32 0
  %16 = load ptr, ptr %15, align 8
  %17 = ptrtoint ptr %16 to i64
  call void @_ZNKSt3__113suspend_never13await_suspendB8un170006ENS_16coroutine_handleIvEE(ptr noundef nonnull align 1 dereferenceable(1) %7, i64 %17) #6
  ret void
}

; Function Attrs: mustprogress noinline norecurse nounwind optnone ssp
define noundef i32 @main() #5 {
  %1 = alloca i32, align 4
  %2 = alloca %"struct.CoroutineDef::task", align 8
  store i32 0, ptr %1, align 4
  %3 = call i32 (ptr, ...) @printf(ptr noundef @.str.2, ptr noundef @.str.3, ptr noundef @.str.4, ptr noundef @.str.5)
  %4 = call i64 @_ZN12CoroutineRef8coreturnEv()
  %5 = getelementptr inbounds %"struct.CoroutineDef::task", ptr %2, i32 0, i32 0
  %6 = getelementptr inbounds %"struct.std::__1::coroutine_handle", ptr %5, i32 0, i32 0
  %7 = inttoptr i64 %4 to ptr
  store ptr %7, ptr %6, align 8
  ret i32 0
}

; Function Attrs: mustprogress noinline nounwind optnone ssp
define internal fastcc void @_ZN12CoroutineRef8coreturnEv.resume(ptr noundef nonnull align 8 dereferenceable(32) %0) #0 {
  %2 = alloca %"struct.CoroutineDef::task", align 8
  %3 = getelementptr inbounds %_ZN12CoroutineRef8coreturnEv.Frame, ptr %0, i32 0, i32 4
  %4 = getelementptr inbounds %_ZN12CoroutineRef8coreturnEv.Frame, ptr %0, i32 0, i32 5
  %5 = getelementptr inbounds %_ZN12CoroutineRef8coreturnEv.Frame, ptr %0, i32 0, i32 2
  br label %54

6:                                                ; preds = %54
  br label %7

7:                                                ; preds = %6
  br label %8

8:                                                ; preds = %7
  switch i8 0, label %51 [
    i8 0, label %12
    i8 1, label %9
  ]

9:                                                ; preds = %8
  br label %10

10:                                               ; preds = %9
  %11 = phi i32 [ 2, %9 ]
  br label %15

12:                                               ; preds = %8
  call void @_ZNKSt3__113suspend_never12await_resumeB8un170006Ev(ptr noundef nonnull align 1 dereferenceable(1) %3) #6
  br label %13

13:                                               ; preds = %12
  %14 = phi i32 [ 0, %12 ]
  br label %15

15:                                               ; preds = %13, %10
  %16 = phi i32 [ %14, %13 ], [ %11, %10 ]
  %17 = icmp eq i32 %16, 0
  br i1 %17, label %20, label %18

18:                                               ; preds = %15
  %19 = phi i32 [ %16, %15 ]
  br label %44

20:                                               ; preds = %15
  %21 = call i32 (ptr, ...) @printf(ptr noundef @.str, ptr noundef @.str.1, i32 noundef 8, ptr noundef @.str.1)
  call void @_ZN12CoroutineDef4task12promise_type11return_voidEv(ptr noundef nonnull align 8 dereferenceable(8) %5)
  br label %22

22:                                               ; preds = %20
  call void @_ZN12CoroutineDef4task12promise_type13final_suspendEv(ptr noundef nonnull align 8 dereferenceable(8) %5) #6
  %23 = call noundef zeroext i1 @_ZNKSt3__113suspend_never11await_readyB8un170006Ev(ptr noundef nonnull align 1 dereferenceable(1) %4) #6
  br i1 %23, label %33, label %24

24:                                               ; preds = %22
  %25 = getelementptr inbounds %_ZN12CoroutineRef8coreturnEv.Frame, ptr %0, i32 0, i32 0
  store ptr null, ptr %25, align 8
  br label %26

26:                                               ; preds = %24
  call void @__await_suspend_wrapper__ZN12CoroutineRef8coreturnEv_final(ptr %4, ptr %0) #6
  br label %27

27:                                               ; preds = %26
  br label %28

28:                                               ; preds = %27
  br label %29

29:                                               ; preds = %28
  switch i8 -1, label %51 [
    i8 0, label %33
    i8 1, label %30
  ]

30:                                               ; preds = %29
  br label %31

31:                                               ; preds = %30
  %32 = phi i32 [ 2, %30 ]
  br label %36

33:                                               ; preds = %29, %22
  call void @_ZNKSt3__113suspend_never12await_resumeB8un170006Ev(ptr noundef nonnull align 1 dereferenceable(1) %4) #6
  br label %34

34:                                               ; preds = %33
  %35 = phi i32 [ 0, %33 ]
  br label %36

36:                                               ; preds = %34, %31
  %37 = phi i32 [ %35, %34 ], [ %32, %31 ]
  %38 = icmp eq i32 %37, 0
  br i1 %38, label %41, label %39

39:                                               ; preds = %36
  %40 = phi i32 [ %37, %36 ]
  br label %44

41:                                               ; preds = %36
  br label %42

42:                                               ; preds = %41
  %43 = phi i32 [ 0, %41 ]
  br label %44

44:                                               ; preds = %42, %39, %18
  %45 = phi i32 [ %19, %18 ], [ %40, %39 ], [ %43, %42 ]
  %46 = call noundef ptr @_ZN12CoroutineDef4task12promise_typeD1Ev(ptr noundef nonnull align 8 dereferenceable(8) %5) #6
  %47 = icmp ne ptr %0, null
  br i1 %47, label %48, label %49

48:                                               ; preds = %44
  call void @_ZdlPv(ptr noundef %0) #6
  br label %49

49:                                               ; preds = %48, %44
  switch i32 %45, label %53 [
    i32 0, label %50
    i32 2, label %51
  ]

50:                                               ; preds = %49
  br label %51

51:                                               ; preds = %50, %49, %29, %8
  br label %52

52:                                               ; preds = %51
  ret void

53:                                               ; preds = %49
  unreachable

54:                                               ; preds = %1
  br label %6
}

; Function Attrs: mustprogress noinline nounwind optnone ssp
define internal fastcc void @_ZN12CoroutineRef8coreturnEv.destroy(ptr noundef nonnull align 8 dereferenceable(32) %0) #0 {
  %2 = alloca %"struct.CoroutineDef::task", align 8
  %3 = getelementptr inbounds %_ZN12CoroutineRef8coreturnEv.Frame, ptr %0, i32 0, i32 4
  %4 = getelementptr inbounds %_ZN12CoroutineRef8coreturnEv.Frame, ptr %0, i32 0, i32 5
  %5 = getelementptr inbounds %_ZN12CoroutineRef8coreturnEv.Frame, ptr %0, i32 0, i32 2
  br label %56

6:                                                ; preds = %60
  br label %7

7:                                                ; preds = %6
  br label %8

8:                                                ; preds = %7
  switch i8 1, label %53 [
    i8 0, label %12
    i8 1, label %9
  ]

9:                                                ; preds = %8
  br label %10

10:                                               ; preds = %9
  %11 = phi i32 [ 2, %9 ]
  br label %15

12:                                               ; preds = %8
  call void @_ZNKSt3__113suspend_never12await_resumeB8un170006Ev(ptr noundef nonnull align 1 dereferenceable(1) %3) #6
  br label %13

13:                                               ; preds = %12
  %14 = phi i32 [ 0, %12 ]
  br label %15

15:                                               ; preds = %13, %10
  %16 = phi i32 [ %14, %13 ], [ %11, %10 ]
  %17 = icmp eq i32 %16, 0
  br i1 %17, label %20, label %18

18:                                               ; preds = %15
  %19 = phi i32 [ %16, %15 ]
  br label %46

20:                                               ; preds = %15
  %21 = call i32 (ptr, ...) @printf(ptr noundef @.str, ptr noundef @.str.1, i32 noundef 8, ptr noundef @.str.1)
  call void @_ZN12CoroutineDef4task12promise_type11return_voidEv(ptr noundef nonnull align 8 dereferenceable(8) %5)
  br label %22

22:                                               ; preds = %20
  call void @_ZN12CoroutineDef4task12promise_type13final_suspendEv(ptr noundef nonnull align 8 dereferenceable(8) %5) #6
  %23 = call noundef zeroext i1 @_ZNKSt3__113suspend_never11await_readyB8un170006Ev(ptr noundef nonnull align 1 dereferenceable(1) %4) #6
  br i1 %23, label %35, label %24

24:                                               ; preds = %22
  %25 = getelementptr inbounds %_ZN12CoroutineRef8coreturnEv.Frame, ptr %0, i32 0, i32 0
  store ptr null, ptr %25, align 8
  br label %26

26:                                               ; preds = %24
  call void @__await_suspend_wrapper__ZN12CoroutineRef8coreturnEv_final(ptr %4, ptr %0) #6
  br label %27

27:                                               ; preds = %26
  br label %29

28:                                               ; preds = %56
  br label %29

29:                                               ; preds = %28, %27
  %30 = phi i8 [ -1, %27 ], [ 1, %28 ]
  br label %31

31:                                               ; preds = %29
  switch i8 %30, label %53 [
    i8 0, label %35
    i8 1, label %32
  ]

32:                                               ; preds = %31
  br label %33

33:                                               ; preds = %32
  %34 = phi i32 [ 2, %32 ]
  br label %38

35:                                               ; preds = %31, %22
  call void @_ZNKSt3__113suspend_never12await_resumeB8un170006Ev(ptr noundef nonnull align 1 dereferenceable(1) %4) #6
  br label %36

36:                                               ; preds = %35
  %37 = phi i32 [ 0, %35 ]
  br label %38

38:                                               ; preds = %36, %33
  %39 = phi i32 [ %37, %36 ], [ %34, %33 ]
  %40 = icmp eq i32 %39, 0
  br i1 %40, label %43, label %41

41:                                               ; preds = %38
  %42 = phi i32 [ %39, %38 ]
  br label %46

43:                                               ; preds = %38
  br label %44

44:                                               ; preds = %43
  %45 = phi i32 [ 0, %43 ]
  br label %46

46:                                               ; preds = %44, %41, %18
  %47 = phi i32 [ %19, %18 ], [ %42, %41 ], [ %45, %44 ]
  %48 = call noundef ptr @_ZN12CoroutineDef4task12promise_typeD1Ev(ptr noundef nonnull align 8 dereferenceable(8) %5) #6
  %49 = icmp ne ptr %0, null
  br i1 %49, label %50, label %51

50:                                               ; preds = %46
  call void @_ZdlPv(ptr noundef %0) #6
  br label %51

51:                                               ; preds = %50, %46
  switch i32 %47, label %55 [
    i32 0, label %52
    i32 2, label %53
  ]

52:                                               ; preds = %51
  br label %53

53:                                               ; preds = %52, %51, %31, %8
  br label %54

54:                                               ; preds = %53
  ret void

55:                                               ; preds = %51
  unreachable

56:                                               ; preds = %1
  %57 = getelementptr inbounds %_ZN12CoroutineRef8coreturnEv.Frame, ptr %0, i32 0, i32 0
  %58 = load ptr, ptr %57, align 8
  %59 = icmp eq ptr %58, null
  br i1 %59, label %28, label %60

60:                                               ; preds = %56
  br label %6
}

; Function Attrs: mustprogress noinline nounwind optnone ssp
define internal fastcc void @_ZN12CoroutineRef8coreturnEv.cleanup(ptr noundef nonnull align 8 dereferenceable(32) %0) #0 {
  %2 = alloca %"struct.CoroutineDef::task", align 8
  %3 = getelementptr inbounds %_ZN12CoroutineRef8coreturnEv.Frame, ptr %0, i32 0, i32 4
  %4 = getelementptr inbounds %_ZN12CoroutineRef8coreturnEv.Frame, ptr %0, i32 0, i32 5
  %5 = getelementptr inbounds %_ZN12CoroutineRef8coreturnEv.Frame, ptr %0, i32 0, i32 2
  br label %56

6:                                                ; preds = %60
  br label %7

7:                                                ; preds = %6
  br label %8

8:                                                ; preds = %7
  switch i8 1, label %53 [
    i8 0, label %12
    i8 1, label %9
  ]

9:                                                ; preds = %8
  br label %10

10:                                               ; preds = %9
  %11 = phi i32 [ 2, %9 ]
  br label %15

12:                                               ; preds = %8
  call void @_ZNKSt3__113suspend_never12await_resumeB8un170006Ev(ptr noundef nonnull align 1 dereferenceable(1) %3) #6
  br label %13

13:                                               ; preds = %12
  %14 = phi i32 [ 0, %12 ]
  br label %15

15:                                               ; preds = %13, %10
  %16 = phi i32 [ %14, %13 ], [ %11, %10 ]
  %17 = icmp eq i32 %16, 0
  br i1 %17, label %20, label %18

18:                                               ; preds = %15
  %19 = phi i32 [ %16, %15 ]
  br label %46

20:                                               ; preds = %15
  %21 = call i32 (ptr, ...) @printf(ptr noundef @.str, ptr noundef @.str.1, i32 noundef 8, ptr noundef @.str.1)
  call void @_ZN12CoroutineDef4task12promise_type11return_voidEv(ptr noundef nonnull align 8 dereferenceable(8) %5)
  br label %22

22:                                               ; preds = %20
  call void @_ZN12CoroutineDef4task12promise_type13final_suspendEv(ptr noundef nonnull align 8 dereferenceable(8) %5) #6
  %23 = call noundef zeroext i1 @_ZNKSt3__113suspend_never11await_readyB8un170006Ev(ptr noundef nonnull align 1 dereferenceable(1) %4) #6
  br i1 %23, label %35, label %24

24:                                               ; preds = %22
  %25 = getelementptr inbounds %_ZN12CoroutineRef8coreturnEv.Frame, ptr %0, i32 0, i32 0
  store ptr null, ptr %25, align 8
  br label %26

26:                                               ; preds = %24
  call void @__await_suspend_wrapper__ZN12CoroutineRef8coreturnEv_final(ptr %4, ptr %0) #6
  br label %27

27:                                               ; preds = %26
  br label %29

28:                                               ; preds = %56
  br label %29

29:                                               ; preds = %28, %27
  %30 = phi i8 [ -1, %27 ], [ 1, %28 ]
  br label %31

31:                                               ; preds = %29
  switch i8 %30, label %53 [
    i8 0, label %35
    i8 1, label %32
  ]

32:                                               ; preds = %31
  br label %33

33:                                               ; preds = %32
  %34 = phi i32 [ 2, %32 ]
  br label %38

35:                                               ; preds = %31, %22
  call void @_ZNKSt3__113suspend_never12await_resumeB8un170006Ev(ptr noundef nonnull align 1 dereferenceable(1) %4) #6
  br label %36

36:                                               ; preds = %35
  %37 = phi i32 [ 0, %35 ]
  br label %38

38:                                               ; preds = %36, %33
  %39 = phi i32 [ %37, %36 ], [ %34, %33 ]
  %40 = icmp eq i32 %39, 0
  br i1 %40, label %43, label %41

41:                                               ; preds = %38
  %42 = phi i32 [ %39, %38 ]
  br label %46

43:                                               ; preds = %38
  br label %44

44:                                               ; preds = %43
  %45 = phi i32 [ 0, %43 ]
  br label %46

46:                                               ; preds = %44, %41, %18
  %47 = phi i32 [ %19, %18 ], [ %42, %41 ], [ %45, %44 ]
  %48 = call noundef ptr @_ZN12CoroutineDef4task12promise_typeD1Ev(ptr noundef nonnull align 8 dereferenceable(8) %5) #6
  %49 = icmp ne ptr null, null
  br i1 %49, label %50, label %51

50:                                               ; preds = %46
  call void @_ZdlPv(ptr noundef null) #6
  br label %51

51:                                               ; preds = %50, %46
  switch i32 %47, label %55 [
    i32 0, label %52
    i32 2, label %53
  ]

52:                                               ; preds = %51
  br label %53

53:                                               ; preds = %52, %51, %31, %8
  br label %54

54:                                               ; preds = %53
  ret void

55:                                               ; preds = %51
  unreachable

56:                                               ; preds = %1
  %57 = getelementptr inbounds %_ZN12CoroutineRef8coreturnEv.Frame, ptr %0, i32 0, i32 0
  %58 = load ptr, ptr %57, align 8
  %59 = icmp eq ptr %58, null
  br i1 %59, label %28, label %60

60:                                               ; preds = %56
  br label %6
}

